target datalayout = "e-m:e-p270:32:32-p271:32:32-p272:64:64-i64:64-i128:128-f80:128-n8:16:32:64-S128"
target triple = "x86_64-pc-linux-gnu"

%"struct.cv::MatSize" = type { ptr }
%"struct.cv::MatStep" = type { ptr, [2 x i64] }
%"class.cv::Mat" = type { i32, i32, i32, i32, ptr, ptr, ptr, ptr, ptr, ptr, %"struct.cv::MatSize", %"struct.cv::MatStep" }

; Function Attrs: inlinehint mustprogress nounwind uwtable
define internal noundef i32 @_ZN2cv6detailL3sqrEi(i32 noundef %0) #7 {
  %2 = alloca i32, align 4
  store i32 %0, ptr %2, align 4, !tbaa !3
  %3 = load i32, ptr %2, align 4, !tbaa !3
  %4 = load i32, ptr %2, align 4, !tbaa !3
  %5 = mul nsw i32 %3, %4
  ret i32 %5
}

; Function Attrs: inlinehint mustprogress nounwind uwtable
define linkonce_odr hidden noundef ptr @_ZNK2cv3Mat3ptrIhEEPKT_i(ptr noundef nonnull align 8 dereferenceable(96) %0, i32 noundef %1) #7 comdat align 2 {
  %3 = alloca ptr, align 8
  %4 = alloca i32, align 4
  store ptr %0, ptr %3, align 8, !tbaa !85
  store i32 %1, ptr %4, align 4, !tbaa !3
  %5 = load ptr, ptr %3, align 8
  %6 = getelementptr inbounds nuw %"class.cv::Mat", ptr %5, i32 0, i32 4
  %7 = load ptr, ptr %6, align 8, !tbaa !87
  %8 = getelementptr inbounds nuw %"class.cv::Mat", ptr %5, i32 0, i32 11
  %9 = getelementptr inbounds nuw %"struct.cv::MatStep", ptr %8, i32 0, i32 0
  %10 = load ptr, ptr %9, align 8, !tbaa !93
  %11 = getelementptr inbounds i64, ptr %10, i64 0
  %12 = load i64, ptr %11, align 8, !tbaa !28
  %13 = load i32, ptr %4, align 4, !tbaa !3
  %14 = sext i32 %13 to i64
  %15 = mul i64 %12, %14
  %16 = getelementptr inbounds nuw i8, ptr %7, i64 %15
  ret ptr %16
}

; Function Attrs: mustprogress nounwind uwtable
define internal noundef float @_ZN2cv6detail12_GLOBAL__N_113diffL2Square4IhEEfRKNS_3MatEiiS5_ii(ptr noundef nonnull align 8 dereferenceable(96) %0, i32 noundef %1, i32 noundef %2, ptr noundef nonnull align 8 dereferenceable(96) %3, i32 noundef %4, i32 noundef %5) #9 {
  %7 = alloca ptr, align 8
  %8 = alloca i32, align 4
  %9 = alloca i32, align 4
  %10 = alloca ptr, align 8
  %11 = alloca i32, align 4
  %12 = alloca i32, align 4
  %13 = alloca ptr, align 8
  %14 = alloca ptr, align 8
  store ptr %0, ptr %7, align 8, !tbaa !85
  store i32 %1, ptr %8, align 4, !tbaa !3
  store i32 %2, ptr %9, align 4, !tbaa !3
  store ptr %3, ptr %10, align 8, !tbaa !85
  store i32 %4, ptr %11, align 4, !tbaa !3
  store i32 %5, ptr %12, align 4, !tbaa !3
  call void @llvm.lifetime.start.p0(i64 8, ptr %13) #3
  %15 = load ptr, ptr %7, align 8, !tbaa !85
  %16 = load i32, ptr %8, align 4, !tbaa !3
  %17 = call noundef ptr @_ZNK2cv3Mat3ptrIhEEPKT_i(ptr noundef nonnull align 8 dereferenceable(96) %15, i32 noundef %16)
  store ptr %17, ptr %13, align 8, !tbaa !20
  call void @llvm.lifetime.start.p0(i64 8, ptr %14) #3
  %18 = load ptr, ptr %10, align 8, !tbaa !85
  %19 = load i32, ptr %11, align 4, !tbaa !3
  %20 = call noundef ptr @_ZNK2cv3Mat3ptrIhEEPKT_i(ptr noundef nonnull align 8 dereferenceable(96) %18, i32 noundef %19)
  store ptr %20, ptr %14, align 8, !tbaa !20
  %21 = load ptr, ptr %13, align 8, !tbaa !20
  %22 = load i32, ptr %9, align 4, !tbaa !3
  %23 = mul nsw i32 4, %22
  %24 = sext i32 %23 to i64
  %25 = getelementptr inbounds i8, ptr %21, i64 %24
  %26 = load i8, ptr %25, align 1, !tbaa !78
  %27 = zext i8 %26 to i32
  %28 = load ptr, ptr %14, align 8, !tbaa !20
  %29 = load i32, ptr %12, align 4, !tbaa !3
  %30 = mul nsw i32 4, %29
  %31 = sext i32 %30 to i64
  %32 = getelementptr inbounds i8, ptr %28, i64 %31
  %33 = load i8, ptr %32, align 1, !tbaa !78
  %34 = zext i8 %33 to i32
  %35 = sub nsw i32 %27, %34
  %36 = call noundef i32 @_ZN2cv6detailL3sqrEi(i32 noundef %35)
  %37 = load ptr, ptr %13, align 8, !tbaa !20
  %38 = load i32, ptr %9, align 4, !tbaa !3
  %39 = mul nsw i32 4, %38
  %40 = add nsw i32 %39, 1
  %41 = sext i32 %40 to i64
  %42 = getelementptr inbounds i8, ptr %37, i64 %41
  %43 = load i8, ptr %42, align 1, !tbaa !78
  %44 = zext i8 %43 to i32
  %45 = load ptr, ptr %14, align 8, !tbaa !20
  %46 = load i32, ptr %12, align 4, !tbaa !3
  %47 = mul nsw i32 4, %46
  %48 = add nsw i32 %47, 1
  %49 = sext i32 %48 to i64
  %50 = getelementptr inbounds i8, ptr %45, i64 %49
  %51 = load i8, ptr %50, align 1, !tbaa !78
  %52 = zext i8 %51 to i32
  %53 = sub nsw i32 %44, %52
  %54 = call noundef i32 @_ZN2cv6detailL3sqrEi(i32 noundef %53)
  %55 = add nsw i32 %36, %54
  %56 = load ptr, ptr %13, align 8, !tbaa !20
  %57 = load i32, ptr %9, align 4, !tbaa !3
  %58 = mul nsw i32 4, %57
  %59 = add nsw i32 %58, 2
  %60 = sext i32 %59 to i64
  %61 = getelementptr inbounds i8, ptr %56, i64 %60
  %62 = load i8, ptr %61, align 1, !tbaa !78
  %63 = zext i8 %62 to i32
  %64 = load ptr, ptr %14, align 8, !tbaa !20
  %65 = load i32, ptr %12, align 4, !tbaa !3
  %66 = mul nsw i32 4, %65
  %67 = add nsw i32 %66, 2
  %68 = sext i32 %67 to i64
  %69 = getelementptr inbounds i8, ptr %64, i64 %68
  %70 = load i8, ptr %69, align 1, !tbaa !78
  %71 = zext i8 %70 to i32
  %72 = sub nsw i32 %63, %71
  %73 = call noundef i32 @_ZN2cv6detailL3sqrEi(i32 noundef %72)
  %74 = add nsw i32 %55, %73
  %75 = sitofp i32 %74 to float
  call void @llvm.lifetime.end.p0(i64 8, ptr %14) #3
  call void @llvm.lifetime.end.p0(i64 8, ptr %13) #3
  ret float %75
}