; Function Attrs: mustprogress nofree norecurse nosync nounwind willreturn memory(read, inaccessiblemem: none) uwtable
define internal noundef float @_ZN2cv6detail12_GLOBAL__N_113diffL2Square4IhEEfRKNS_3MatEiiS5_ii(ptr noundef nonnull readonly align 8 captures(none) dereferenceable(96) %0, i32 noundef %1, i32 noundef %2, ptr noundef nonnull readonly align 8 captures(none) dereferenceable(96) %3, i32 noundef %4, i32 noundef %5) unnamed_addr #12 {
  %7 = getelementptr inbounds nuw i8, ptr %0, i64 16
  %8 = load ptr, ptr %7, align 8, !tbaa !77
  %9 = getelementptr inbounds nuw i8, ptr %0, i64 72
  %10 = load ptr, ptr %9, align 8, !tbaa !83
  %11 = load i64, ptr %10, align 8, !tbaa !84
  %12 = sext i32 %1 to i64
  %13 = mul i64 %11, %12
  %14 = getelementptr inbounds nuw i8, ptr %8, i64 %13
  %15 = getelementptr inbounds nuw i8, ptr %3, i64 16
  %16 = load ptr, ptr %15, align 8, !tbaa !77
  %17 = getelementptr inbounds nuw i8, ptr %3, i64 72
  %18 = load ptr, ptr %17, align 8, !tbaa !83
  %19 = load i64, ptr %18, align 8, !tbaa !84
  %20 = sext i32 %4 to i64
  %21 = mul i64 %19, %20
  %22 = getelementptr inbounds nuw i8, ptr %16, i64 %21
  %23 = shl nsw i32 %2, 2
  %24 = sext i32 %23 to i64
  %25 = getelementptr inbounds i8, ptr %14, i64 %24
  %26 = load i8, ptr %25, align 1, !tbaa !85
  %27 = zext i8 %26 to i32
  %28 = shl nsw i32 %5, 2
  %29 = sext i32 %28 to i64
  %30 = getelementptr inbounds i8, ptr %22, i64 %29
  %31 = load i8, ptr %30, align 1, !tbaa !85
  %32 = zext i8 %31 to i32
  %33 = sub nsw i32 %27, %32
  %34 = mul nsw i32 %33, %33
  %35 = or disjoint i32 %23, 1
  %36 = sext i32 %35 to i64
  %37 = getelementptr inbounds i8, ptr %14, i64 %36
  %38 = load i8, ptr %37, align 1, !tbaa !85
  %39 = zext i8 %38 to i32
  %40 = or disjoint i32 %28, 1
  %41 = sext i32 %40 to i64
  %42 = getelementptr inbounds i8, ptr %22, i64 %41
  %43 = load i8, ptr %42, align 1, !tbaa !85
  %44 = zext i8 %43 to i32
  %45 = sub nsw i32 %39, %44
  %46 = mul nsw i32 %45, %45
  %47 = add nuw nsw i32 %46, %34
  %48 = or disjoint i32 %23, 2
  %49 = sext i32 %48 to i64
  %50 = getelementptr inbounds i8, ptr %14, i64 %49
  %51 = load i8, ptr %50, align 1, !tbaa !85
  %52 = zext i8 %51 to i32
  %53 = or disjoint i32 %28, 2
  %54 = sext i32 %53 to i64
  %55 = getelementptr inbounds i8, ptr %22, i64 %54
  %56 = load i8, ptr %55, align 1, !tbaa !85
  %57 = zext i8 %56 to i32
  %58 = sub nsw i32 %52, %57
  %59 = mul nsw i32 %58, %58
  %60 = add nuw nsw i32 %47, %59
  %61 = uitofp nneg i32 %60 to float
  ret float %61
}